target datalayout = "e-m:e-p270:32:32-p271:32:32-p272:64:64-i64:64-i128:128-f80:128-n8:16:32:64-S128"
target triple = "x86_64-pc-linux-gnu"

%class.ExceptionHandlerTable = type <{ ptr, i32, i32, %class.ReallocMark, [7 x i8] }>
%class.ReallocMark = type { i8 }

@g_assert_poison = external global ptr, align 8
@.str = private unnamed_addr constant [49 x i8] c"src/hotspot/share/code/exceptionHandlerTable.cpp\00", align 1
@.str.6 = private unnamed_addr constant [35 x i8] c"guarantee(initial_size > 0) failed\00", align 1
@.str.7 = private unnamed_addr constant [25 x i8] c"initial size must be > 0\00", align 1

; Function Attrs: mustprogress nounwind uwtable
define linkonce_odr hidden void @_ZN11ReallocMarkC2Ev(ptr noundef nonnull align 1 dereferenceable(1) %0) unnamed_addr #1 comdat align 2 {
  %2 = alloca ptr, align 8
  store ptr %0, ptr %2, align 8
  ret void
}

; Function Attrs: mustprogress nounwind uwtable
define hidden void @_ZN21ExceptionHandlerTableC2Ei(ptr noundef nonnull align 8 dereferenceable(17) %0, i32 noundef %1) unnamed_addr #1 align 2 {
  %3 = alloca ptr, align 8
  %4 = alloca i32, align 4
  store ptr %0, ptr %3, align 8
  store i32 %1, ptr %4, align 4
  %5 = load ptr, ptr %3, align 8
  %6 = getelementptr inbounds %class.ExceptionHandlerTable, ptr %5, i32 0, i32 3
  call void @_ZN11ReallocMarkC2Ev(ptr noundef nonnull align 1 dereferenceable(1) %6)
  br label %7

7:                                                ; preds = %2
  %8 = load i32, ptr %4, align 4
  %9 = icmp sgt i32 %8, 0
  br i1 %9, label %12, label %10

10:                                               ; preds = %7
  %11 = load ptr, ptr @g_assert_poison, align 8
  store i8 88, ptr %11, align 1
  call void (ptr, i32, ptr, ptr, ...) @_Z15report_vm_errorPKciS0_S0_z(ptr noundef @.str, i32 noundef 61, ptr noundef @.str.6, ptr noundef @.str.7) #5
  unreachable

12:                                               ; preds = %7
  br label %13

13:                                               ; preds = %12
  %14 = load i32, ptr %4, align 4
  %15 = sext i32 %14 to i64
  %16 = mul i64 %15, 12
  %17 = call noundef ptr @_Z23resource_allocate_bytesmN17AllocFailStrategy13AllocFailEnumE(i64 noundef %16, i32 noundef 0)
  %18 = getelementptr inbounds %class.ExceptionHandlerTable, ptr %5, i32 0, i32 0
  store ptr %17, ptr %18, align 8
  %19 = getelementptr inbounds %class.ExceptionHandlerTable, ptr %5, i32 0, i32 1
  store i32 0, ptr %19, align 8
  %20 = load i32, ptr %4, align 4
  %21 = getelementptr inbounds %class.ExceptionHandlerTable, ptr %5, i32 0, i32 2
  store i32 %20, ptr %21, align 4
  ret void
}