; Function Attrs: mustprogress nounwind uwtable
define hidden void @_ZN21ExceptionHandlerTableC2Ei(ptr nocapture noundef nonnull writeonly align 8 dereferenceable(17) %0, i32 noundef %1) unnamed_addr #0 align 2 {
  %3 = icmp sgt i32 %1, 0
  br i1 %3, label %6, label %4

4:                                                ; preds = %2
  %5 = load ptr, ptr @g_assert_poison, align 8
  store i8 88, ptr %5, align 1
  tail call void (ptr, i32, ptr, ptr, ...) @_Z15report_vm_errorPKciS0_S0_z(ptr noundef nonnull @.str, i32 noundef 61, ptr noundef nonnull @.str.6, ptr noundef nonnull @.str.7) #8
  unreachable

6:                                                ; preds = %2
  %7 = zext nneg i32 %1 to i64
  %8 = mul nuw nsw i64 %7, 12
  %9 = tail call noundef ptr @_Z23resource_allocate_bytesmN17AllocFailStrategy13AllocFailEnumE(i64 noundef %8, i32 noundef 0) #9
  store ptr %9, ptr %0, align 8
  %10 = getelementptr inbounds i8, ptr %0, i64 8
  store i32 0, ptr %10, align 8
  %11 = getelementptr inbounds i8, ptr %0, i64 12
  store i32 %1, ptr %11, align 4
  ret void
}